(dp1
S'phone_num'
p2
(dp3
S'type'
p4
S'string'
p5
sS'sortable'
p6
I4
sS'sql'
p7
S'CHAR(512)'
p8
ssS'name'
p9
(dp10
g4
g5
sg6
I2
sg7
S'CHAR(512)'
p11
ssS'lon'
p12
(dp13
g4
S'double'
p14
sg6
I6
sg7
S'DOUBLE'
p15
ssS'address'
p16
(dp17
g4
g5
sg6
I3
sg7
S'CHAR(512)'
p18
ssS'lat'
p19
(dp20
g4
g14
sg6
I5
sg7
S'DOUBLE'
p21
ssS'id'
p22
(dp23
g4
g22
sg6
I1
sg7
S'INTEGER PRIMARY KEY AUTOINCREMENT'
p24
ss.